Archive member included because of file (symbol)

c:/program files (x86)/gnu tools arm embedded/4.6 2012q4/bin/../lib/gcc/arm-none-eabi/4.6.2/../../../../arm-none-eabi/lib/armv7-m\libg.a(lib_a-memcpy.o)
                              ..\obj\Eeprom.o (memcpy)

Allocating common symbols
Common symbol       size              file

Current_RAW         0x2               ..\obj\General.o
ChargeDurationSec   0x4               ..\obj\main.o
RegularConvData     0x10              ..\obj\main.o
RXBuf               0xc8              ..\obj\usart.o
SelectedOptionValue
                    0x4               ..\obj\main.o
TXBuf               0xc8              ..\obj\usart.o
LoggingData         0x19c             ..\obj\General.o

Discarded input sections

 .text          0x00000000        0x0 ..\obj\MicroMenu2_1.o
 .text          0x00000000        0x0 ..\obj\stm32f10x_tim.o
 .data          0x00000000        0x0 ..\obj\stm32f10x_tim.o
 .bss           0x00000000        0x0 ..\obj\stm32f10x_tim.o
 .text.TI1_Config
                0x00000000       0x68 ..\obj\stm32f10x_tim.o
 .text.TI2_Config
                0x00000000       0x78 ..\obj\stm32f10x_tim.o
 .text.TIM_DeInit
                0x00000000      0x1ac ..\obj\stm32f10x_tim.o
 .text.TIM_OC1Init
                0x00000000       0x88 ..\obj\stm32f10x_tim.o
 .text.TIM_OC2Init
                0x00000000       0x88 ..\obj\stm32f10x_tim.o
 .text.TIM_OC3Init
                0x00000000       0x84 ..\obj\stm32f10x_tim.o
 .text.TIM_OC4Init
                0x00000000       0x68 ..\obj\stm32f10x_tim.o
 .text.TIM_BDTRConfig
                0x00000000       0x22 ..\obj\stm32f10x_tim.o
 .text.TIM_OCStructInit
                0x00000000       0x14 ..\obj\stm32f10x_tim.o
 .text.TIM_ICStructInit
                0x00000000       0x10 ..\obj\stm32f10x_tim.o
 .text.TIM_BDTRStructInit
                0x00000000       0x12 ..\obj\stm32f10x_tim.o
 .text.TIM_CtrlPWMOutputs
                0x00000000       0x1c ..\obj\stm32f10x_tim.o
 .text.TIM_GenerateEvent
                0x00000000        0x4 ..\obj\stm32f10x_tim.o
 .text.TIM_DMAConfig
                0x00000000        0x8 ..\obj\stm32f10x_tim.o
 .text.TIM_DMACmd
                0x00000000       0x12 ..\obj\stm32f10x_tim.o
 .text.TIM_InternalClockConfig
                0x00000000        0xe ..\obj\stm32f10x_tim.o
 .text.TIM_ITRxExternalClockConfig
                0x00000000       0x1a ..\obj\stm32f10x_tim.o
 .text.TIM_TIxExternalClockConfig
                0x00000000       0x32 ..\obj\stm32f10x_tim.o
 .text.TIM_ETRConfig
                0x00000000       0x14 ..\obj\stm32f10x_tim.o
 .text.TIM_ETRClockMode2Config
                0x00000000       0x14 ..\obj\stm32f10x_tim.o
 .text.TIM_ETRClockMode1Config
                0x00000000       0x1a ..\obj\stm32f10x_tim.o
 .text.TIM_PrescalerConfig
                0x00000000        0x6 ..\obj\stm32f10x_tim.o
 .text.TIM_CounterModeConfig
                0x00000000       0x10 ..\obj\stm32f10x_tim.o
 .text.TIM_SelectInputTrigger
                0x00000000       0x10 ..\obj\stm32f10x_tim.o
 .text.TIM_EncoderInterfaceConfig
                0x00000000       0x3c ..\obj\stm32f10x_tim.o
 .text.TIM_ForcedOC1Config
                0x00000000       0x10 ..\obj\stm32f10x_tim.o
 .text.TIM_ForcedOC2Config
                0x00000000       0x14 ..\obj\stm32f10x_tim.o
 .text.TIM_ForcedOC3Config
                0x00000000       0x10 ..\obj\stm32f10x_tim.o
 .text.TIM_ForcedOC4Config
                0x00000000       0x14 ..\obj\stm32f10x_tim.o
 .text.TIM_ARRPreloadConfig
                0x00000000       0x18 ..\obj\stm32f10x_tim.o
 .text.TIM_SelectCOM
                0x00000000       0x18 ..\obj\stm32f10x_tim.o
 .text.TIM_SelectCCDMA
                0x00000000       0x18 ..\obj\stm32f10x_tim.o
 .text.TIM_CCPreloadControl
                0x00000000       0x18 ..\obj\stm32f10x_tim.o
 .text.TIM_OC1PreloadConfig
                0x00000000       0x10 ..\obj\stm32f10x_tim.o
 .text.TIM_OC2PreloadConfig
                0x00000000       0x14 ..\obj\stm32f10x_tim.o
 .text.TIM_OC3PreloadConfig
                0x00000000       0x10 ..\obj\stm32f10x_tim.o
 .text.TIM_OC4PreloadConfig
                0x00000000       0x14 ..\obj\stm32f10x_tim.o
 .text.TIM_OC1FastConfig
                0x00000000       0x10 ..\obj\stm32f10x_tim.o
 .text.TIM_OC2FastConfig
                0x00000000       0x14 ..\obj\stm32f10x_tim.o
 .text.TIM_OC3FastConfig
                0x00000000       0x10 ..\obj\stm32f10x_tim.o
 .text.TIM_OC4FastConfig
                0x00000000       0x14 ..\obj\stm32f10x_tim.o
 .text.TIM_ClearOC1Ref
                0x00000000       0x10 ..\obj\stm32f10x_tim.o
 .text.TIM_ClearOC2Ref
                0x00000000       0x10 ..\obj\stm32f10x_tim.o
 .text.TIM_ClearOC3Ref
                0x00000000       0x10 ..\obj\stm32f10x_tim.o
 .text.TIM_ClearOC4Ref
                0x00000000       0x10 ..\obj\stm32f10x_tim.o
 .text.TIM_OC1PolarityConfig
                0x00000000       0x10 ..\obj\stm32f10x_tim.o
 .text.TIM_OC1NPolarityConfig
                0x00000000       0x10 ..\obj\stm32f10x_tim.o
 .text.TIM_OC2PolarityConfig
                0x00000000       0x14 ..\obj\stm32f10x_tim.o
 .text.TIM_OC2NPolarityConfig
                0x00000000       0x14 ..\obj\stm32f10x_tim.o
 .text.TIM_OC3PolarityConfig
                0x00000000       0x14 ..\obj\stm32f10x_tim.o
 .text.TIM_OC3NPolarityConfig
                0x00000000       0x14 ..\obj\stm32f10x_tim.o
 .text.TIM_OC4PolarityConfig
                0x00000000       0x14 ..\obj\stm32f10x_tim.o
 .text.TIM_CCxCmd
                0x00000000       0x20 ..\obj\stm32f10x_tim.o
 .text.TIM_CCxNCmd
                0x00000000       0x20 ..\obj\stm32f10x_tim.o
 .text.TIM_SelectOCxM
                0x00000000       0x44 ..\obj\stm32f10x_tim.o
 .text.TIM_UpdateDisableConfig
                0x00000000       0x18 ..\obj\stm32f10x_tim.o
 .text.TIM_UpdateRequestConfig
                0x00000000       0x18 ..\obj\stm32f10x_tim.o
 .text.TIM_SelectHallSensor
                0x00000000       0x18 ..\obj\stm32f10x_tim.o
 .text.TIM_SelectOnePulseMode
                0x00000000       0x16 ..\obj\stm32f10x_tim.o
 .text.TIM_SelectOutputTrigger
                0x00000000       0x16 ..\obj\stm32f10x_tim.o
 .text.TIM_SelectSlaveMode
                0x00000000       0x16 ..\obj\stm32f10x_tim.o
 .text.TIM_SelectMasterSlaveMode
                0x00000000       0x16 ..\obj\stm32f10x_tim.o
 .text.TIM_SetCounter
                0x00000000        0x4 ..\obj\stm32f10x_tim.o
 .text.TIM_SetAutoreload
                0x00000000        0x4 ..\obj\stm32f10x_tim.o
 .text.TIM_SetCompare1
                0x00000000        0x4 ..\obj\stm32f10x_tim.o
 .text.TIM_SetCompare2
                0x00000000        0x4 ..\obj\stm32f10x_tim.o
 .text.TIM_SetCompare3
                0x00000000        0x4 ..\obj\stm32f10x_tim.o
 .text.TIM_SetCompare4
                0x00000000        0x6 ..\obj\stm32f10x_tim.o
 .text.TIM_SetIC1Prescaler
                0x00000000       0x16 ..\obj\stm32f10x_tim.o
 .text.TIM_SetIC2Prescaler
                0x00000000       0x1a ..\obj\stm32f10x_tim.o
 .text.TIM_PWMIConfig
                0x00000000       0x6c ..\obj\stm32f10x_tim.o
 .text.TIM_SetIC3Prescaler
                0x00000000       0x16 ..\obj\stm32f10x_tim.o
 .text.TIM_SetIC4Prescaler
                0x00000000       0x1a ..\obj\stm32f10x_tim.o
 .text.TIM_ICInit
                0x00000000      0x134 ..\obj\stm32f10x_tim.o
 .text.TIM_SetClockDivision
                0x00000000       0x16 ..\obj\stm32f10x_tim.o
 .text.TIM_GetCapture1
                0x00000000        0x6 ..\obj\stm32f10x_tim.o
 .text.TIM_GetCapture2
                0x00000000        0x6 ..\obj\stm32f10x_tim.o
 .text.TIM_GetCapture3
                0x00000000        0x6 ..\obj\stm32f10x_tim.o
 .text.TIM_GetCapture4
                0x00000000        0x8 ..\obj\stm32f10x_tim.o
 .text.TIM_GetCounter
                0x00000000        0x6 ..\obj\stm32f10x_tim.o
 .text.TIM_GetPrescaler
                0x00000000        0x6 ..\obj\stm32f10x_tim.o
 .text.TIM_GetFlagStatus
                0x00000000        0xc ..\obj\stm32f10x_tim.o
 .text.TIM_ClearFlag
                0x00000000        0x8 ..\obj\stm32f10x_tim.o
 .text          0x00000000        0x0 ..\obj\startup_stm32f10x_ld_vl.o
 .data          0x00000000        0x0 ..\obj\startup_stm32f10x_ld_vl.o
 .bss           0x00000000        0x0 ..\obj\startup_stm32f10x_ld_vl.o
 .text          0x00000000        0x0 ..\obj\General.o
 .text          0x00000000        0x0 ..\obj\system_stm32f10x.o
 .data          0x00000000       0x14 ..\obj\system_stm32f10x.o
 .bss           0x00000000        0x0 ..\obj\system_stm32f10x.o
 .text.SystemCoreClockUpdate
                0x00000000       0x64 ..\obj\system_stm32f10x.o
 .text          0x00000000        0x0 ..\obj\hd44780_driver.o
 .text.lcd_out  0x00000000       0x2c ..\obj\hd44780_driver.o
 .text.lcd_set_CGRAM_char
                0x00000000       0x2e ..\obj\hd44780_driver.o
 .text.PrintToLCD_int32
                0x00000000        0xe ..\obj\hd44780_driver.o
 .text.PrintToLCD_int32_koma
                0x00000000        0xe ..\obj\hd44780_driver.o
 .text          0x00000000        0x0 ..\obj\stm32f10x_gpio.o
 .data          0x00000000        0x0 ..\obj\stm32f10x_gpio.o
 .bss           0x00000000        0x0 ..\obj\stm32f10x_gpio.o
 .text.GPIO_DeInit
                0x00000000       0xac ..\obj\stm32f10x_gpio.o
 .text.GPIO_AFIODeInit
                0x00000000       0x16 ..\obj\stm32f10x_gpio.o
 .text.GPIO_StructInit
                0x00000000       0x10 ..\obj\stm32f10x_gpio.o
 .text.GPIO_ReadInputData
                0x00000000        0x6 ..\obj\stm32f10x_gpio.o
 .text.GPIO_ReadOutputDataBit
                0x00000000        0xc ..\obj\stm32f10x_gpio.o
 .text.GPIO_ReadOutputData
                0x00000000        0x6 ..\obj\stm32f10x_gpio.o
 .text.GPIO_SetBits
                0x00000000        0x4 ..\obj\stm32f10x_gpio.o
 .text.GPIO_ResetBits
                0x00000000        0x4 ..\obj\stm32f10x_gpio.o
 .text.GPIO_WriteBit
                0x00000000        0xa ..\obj\stm32f10x_gpio.o
 .text.GPIO_Write
                0x00000000        0x4 ..\obj\stm32f10x_gpio.o
 .text.GPIO_PinLockConfig
                0x00000000       0x10 ..\obj\stm32f10x_gpio.o
 .text.GPIO_EventOutputConfig
                0x00000000       0x1c ..\obj\stm32f10x_gpio.o
 .text.GPIO_EventOutputCmd
                0x00000000        0xc ..\obj\stm32f10x_gpio.o
 .text.GPIO_PinRemapConfig
                0x00000000       0x64 ..\obj\stm32f10x_gpio.o
 .text.GPIO_EXTILineConfig
                0x00000000       0x34 ..\obj\stm32f10x_gpio.o
 .text.GPIO_ETH_MediaInterfaceConfig
                0x00000000        0xc ..\obj\stm32f10x_gpio.o
 .text          0x00000000        0x0 ..\obj\main.o
 .text.MenuChargeCC_CV
                0x00000000        0x2 ..\obj\main.o
 .text.MenuChargeAdapt
                0x00000000        0x2 ..\obj\main.o
 .text.MenuDisCharge
                0x00000000        0x2 ..\obj\main.o
 .text.MenuTraining_WriteInLOG
                0x00000000        0x2 ..\obj\main.o
 .text.MenuTraining_new
                0x00000000        0x2 ..\obj\main.o
 .text.MenuSwing
                0x00000000        0x2 ..\obj\main.o
 .text.MenuCheckingCapacity
                0x00000000        0x2 ..\obj\main.o
 .text.MenuCalibration_CURRENT_Load_to_0
                0x00000000        0x2 ..\obj\main.o
 .text.MenuSettingsChargeTime_Enter
                0x00000000        0x2 ..\obj\main.o
 .text.MenuSettingsLowVolt_Enter
                0x00000000        0x2 ..\obj\main.o
 .text.MenuSettingsMaxVolt_Enter
                0x00000000        0x2 ..\obj\main.o
 .text.MenuSettingsSwngChrgTime_Enter
                0x00000000        0x2 ..\obj\main.o
 .text.MenuSettingsSwngDChrgTime_Enter
                0x00000000        0x2 ..\obj\main.o
 .text.MenuSettingsChargeAddapt_Enter
                0x00000000        0x2 ..\obj\main.o
 .text.Start_Timer_sec
                0x00000000       0x14 ..\obj\main.o
 .text.ReStart_Timer_sec
                0x00000000       0x14 ..\obj\main.o
 .text.Stop_Timer_sec
                0x00000000       0x10 ..\obj\main.o
 .text.ClockOnLCD
                0x00000000       0x9c ..\obj\main.o
 .text.ClockOnLCD_noSec
                0x00000000       0x6c ..\obj\main.o
 .text.discharge1
                0x00000000       0x38 ..\obj\main.o
 .text.discharge
                0x00000000       0x14 ..\obj\main.o
 .text.All_OUT_OFF_When_Power_OFF
                0x00000000       0xd4 ..\obj\main.o
 .text.charge1  0x00000000       0x38 ..\obj\main.o
 .text.charge   0x00000000       0x14 ..\obj\main.o
 .text.LOAD_ON_OFF_Toggle
                0x00000000       0x14 ..\obj\main.o
 .text.OUT_ON_OFF_Toggle
                0x00000000       0x14 ..\obj\main.o
 .text          0x00000000        0x0 ..\obj\ADC.o
 .text.middle_of_3
                0x00000000       0x2a ..\obj\ADC.o
 .text.middle_of_3_ImA
                0x00000000       0x44 ..\obj\ADC.o
 .text          0x00000000        0x0 ..\obj\stm32f10x_rcc.o
 .bss           0x00000000        0x0 ..\obj\stm32f10x_rcc.o
 .text.RCC_DeInit
                0x00000000       0x44 ..\obj\stm32f10x_rcc.o
 .text.RCC_HSEConfig
                0x00000000       0x38 ..\obj\stm32f10x_rcc.o
 .text.RCC_AdjustHSICalibrationValue
                0x00000000       0x14 ..\obj\stm32f10x_rcc.o
 .text.RCC_HSICmd
                0x00000000        0xc ..\obj\stm32f10x_rcc.o
 .text.RCC_PLLConfig
                0x00000000       0x14 ..\obj\stm32f10x_rcc.o
 .text.RCC_PLLCmd
                0x00000000        0xc ..\obj\stm32f10x_rcc.o
 .text.RCC_PREDIV1Config
                0x00000000       0x18 ..\obj\stm32f10x_rcc.o
 .text.RCC_SYSCLKConfig
                0x00000000       0x14 ..\obj\stm32f10x_rcc.o
 .text.RCC_GetSYSCLKSource
                0x00000000       0x10 ..\obj\stm32f10x_rcc.o
 .text.RCC_HCLKConfig
                0x00000000       0x14 ..\obj\stm32f10x_rcc.o
 .text.RCC_PCLK1Config
                0x00000000       0x14 ..\obj\stm32f10x_rcc.o
 .text.RCC_PCLK2Config
                0x00000000       0x14 ..\obj\stm32f10x_rcc.o
 .text.RCC_ITConfig
                0x00000000       0x18 ..\obj\stm32f10x_rcc.o
 .text.RCC_USBCLKConfig
                0x00000000        0xc ..\obj\stm32f10x_rcc.o
 .text.RCC_LSEConfig
                0x00000000       0x20 ..\obj\stm32f10x_rcc.o
 .text.RCC_LSICmd
                0x00000000        0xc ..\obj\stm32f10x_rcc.o
 .text.RCC_RTCCLKConfig
                0x00000000       0x10 ..\obj\stm32f10x_rcc.o
 .text.RCC_RTCCLKCmd
                0x00000000        0xc ..\obj\stm32f10x_rcc.o
 .text.RCC_APB2PeriphResetCmd
                0x00000000       0x18 ..\obj\stm32f10x_rcc.o
 .text.RCC_APB1PeriphResetCmd
                0x00000000       0x18 ..\obj\stm32f10x_rcc.o
 .text.RCC_BackupResetCmd
                0x00000000        0xc ..\obj\stm32f10x_rcc.o
 .text.RCC_ClockSecuritySystemCmd
                0x00000000        0xc ..\obj\stm32f10x_rcc.o
 .text.RCC_MCOConfig
                0x00000000        0xc ..\obj\stm32f10x_rcc.o
 .text.RCC_GetFlagStatus
                0x00000000       0x28 ..\obj\stm32f10x_rcc.o
 .text.RCC_WaitForHSEStartUp
                0x00000000       0x2c ..\obj\stm32f10x_rcc.o
 .text.RCC_ClearFlag
                0x00000000       0x10 ..\obj\stm32f10x_rcc.o
 .text.RCC_GetITStatus
                0x00000000       0x14 ..\obj\stm32f10x_rcc.o
 .text.RCC_ClearITPendingBit
                0x00000000        0xc ..\obj\stm32f10x_rcc.o
 .text          0x00000000        0x0 ..\obj\Init_.o
 .data          0x00000000        0x0 ..\obj\Init_.o
 .bss           0x00000000        0x0 ..\obj\Init_.o
 .text          0x00000000        0x0 ..\obj\stm32f10x_adc.o
 .data          0x00000000        0x0 ..\obj\stm32f10x_adc.o
 .bss           0x00000000        0x0 ..\obj\stm32f10x_adc.o
 .text.ADC_DeInit
                0x00000000       0x5c ..\obj\stm32f10x_adc.o
 .text.ADC_StructInit
                0x00000000       0x12 ..\obj\stm32f10x_adc.o
 .text.ADC_ITConfig
                0x00000000       0x12 ..\obj\stm32f10x_adc.o
 .text.ADC_GetSoftwareStartConvStatus
                0x00000000        0x8 ..\obj\stm32f10x_adc.o
 .text.ADC_DiscModeChannelCountConfig
                0x00000000       0x10 ..\obj\stm32f10x_adc.o
 .text.ADC_DiscModeCmd
                0x00000000       0x12 ..\obj\stm32f10x_adc.o
 .text.ADC_ExternalTrigConvCmd
                0x00000000       0x12 ..\obj\stm32f10x_adc.o
 .text.ADC_GetConversionValue
                0x00000000        0x6 ..\obj\stm32f10x_adc.o
 .text.ADC_GetDualModeConversionValue
                0x00000000        0xc ..\obj\stm32f10x_adc.o
 .text.ADC_AutoInjectedConvCmd
                0x00000000       0x12 ..\obj\stm32f10x_adc.o
 .text.ADC_InjectedDiscModeCmd
                0x00000000       0x12 ..\obj\stm32f10x_adc.o
 .text.ADC_ExternalTrigInjectedConvConfig
                0x00000000        0xc ..\obj\stm32f10x_adc.o
 .text.ADC_ExternalTrigInjectedConvCmd
                0x00000000       0x12 ..\obj\stm32f10x_adc.o
 .text.ADC_SoftwareStartInjectedConvCmd
                0x00000000       0x12 ..\obj\stm32f10x_adc.o
 .text.ADC_GetSoftwareStartInjectedConvCmdStatus
                0x00000000        0x8 ..\obj\stm32f10x_adc.o
 .text.ADC_InjectedChannelConfig
                0x00000000       0x62 ..\obj\stm32f10x_adc.o
 .text.ADC_InjectedSequencerLengthConfig
                0x00000000       0x10 ..\obj\stm32f10x_adc.o
 .text.ADC_SetInjectedOffset
                0x00000000       0x16 ..\obj\stm32f10x_adc.o
 .text.ADC_GetInjectedConversionValue
                0x00000000       0x1a ..\obj\stm32f10x_adc.o
 .text.ADC_AnalogWatchdogCmd
                0x00000000       0x10 ..\obj\stm32f10x_adc.o
 .text.ADC_AnalogWatchdogThresholdsConfig
                0x00000000        0x6 ..\obj\stm32f10x_adc.o
 .text.ADC_AnalogWatchdogSingleChannelConfig
                0x00000000        0xc ..\obj\stm32f10x_adc.o
 .text.ADC_GetFlagStatus
                0x00000000        0xc ..\obj\stm32f10x_adc.o
 .text.ADC_ClearFlag
                0x00000000        0x6 ..\obj\stm32f10x_adc.o
 .text.ADC_GetITStatus
                0x00000000       0x16 ..\obj\stm32f10x_adc.o
 .text.ADC_ClearITPendingBit
                0x00000000        0x8 ..\obj\stm32f10x_adc.o
 .text          0x00000000        0x0 ..\obj\stm32f10x_usart.o
 .data          0x00000000        0x0 ..\obj\stm32f10x_usart.o
 .bss           0x00000000        0x0 ..\obj\stm32f10x_usart.o
 .text.USART_DeInit
                0x00000000       0x98 ..\obj\stm32f10x_usart.o
 .text.USART_StructInit
                0x00000000       0x16 ..\obj\stm32f10x_usart.o
 .text.USART_ClockInit
                0x00000000       0x22 ..\obj\stm32f10x_usart.o
 .text.USART_ClockStructInit
                0x00000000        0xc ..\obj\stm32f10x_usart.o
 .text.USART_DMACmd
                0x00000000       0x12 ..\obj\stm32f10x_usart.o
 .text.USART_SetAddress
                0x00000000       0x16 ..\obj\stm32f10x_usart.o
 .text.USART_WakeUpConfig
                0x00000000       0x16 ..\obj\stm32f10x_usart.o
 .text.USART_ReceiverWakeUpCmd
                0x00000000       0x18 ..\obj\stm32f10x_usart.o
 .text.USART_LINBreakDetectLengthConfig
                0x00000000       0x16 ..\obj\stm32f10x_usart.o
 .text.USART_LINCmd
                0x00000000       0x18 ..\obj\stm32f10x_usart.o
 .text.USART_ReceiveData
                0x00000000        0x8 ..\obj\stm32f10x_usart.o
 .text.USART_SendBreak
                0x00000000        0xc ..\obj\stm32f10x_usart.o
 .text.USART_SetGuardTime
                0x00000000       0x12 ..\obj\stm32f10x_usart.o
 .text.USART_SetPrescaler
                0x00000000       0x12 ..\obj\stm32f10x_usart.o
 .text.USART_SmartCardCmd
                0x00000000       0x18 ..\obj\stm32f10x_usart.o
 .text.USART_SmartCardNACKCmd
                0x00000000       0x18 ..\obj\stm32f10x_usart.o
 .text.USART_HalfDuplexCmd
                0x00000000       0x18 ..\obj\stm32f10x_usart.o
 .text.USART_OverSampling8Cmd
                0x00000000       0x18 ..\obj\stm32f10x_usart.o
 .text.USART_OneBitMethodCmd
                0x00000000       0x18 ..\obj\stm32f10x_usart.o
 .text.USART_IrDAConfig
                0x00000000       0x16 ..\obj\stm32f10x_usart.o
 .text.USART_IrDACmd
                0x00000000       0x18 ..\obj\stm32f10x_usart.o
 .text.USART_ClearFlag
                0x00000000        0x8 ..\obj\stm32f10x_usart.o
 .text.USART_GetITStatus
                0x00000000       0x40 ..\obj\stm32f10x_usart.o
 .text.USART_ClearITPendingBit
                0x00000000       0x10 ..\obj\stm32f10x_usart.o
 .text          0x00000000        0x0 ..\obj\Lib.o
 .data          0x00000000        0x0 ..\obj\Lib.o
 .text.itoa_komaP
                0x00000000       0xd6 ..\obj\Lib.o
 .text.Module16
                0x00000000        0xc ..\obj\Lib.o
 .text.Module8  0x00000000        0xc ..\obj\Lib.o
 .text.Module32
                0x00000000        0xa ..\obj\Lib.o
 .text.Merge2Strings
                0x00000000       0x32 ..\obj\Lib.o
 .text          0x00000000        0x0 ..\obj\stm32f10x_dma.o
 .data          0x00000000        0x0 ..\obj\stm32f10x_dma.o
 .bss           0x00000000        0x0 ..\obj\stm32f10x_dma.o
 .text.DMA_DeInit
                0x00000000       0xfc ..\obj\stm32f10x_dma.o
 .text.DMA_StructInit
                0x00000000       0x1a ..\obj\stm32f10x_dma.o
 .text.DMA_SetCurrDataCounter
                0x00000000        0x4 ..\obj\stm32f10x_dma.o
 .text.DMA_GetCurrDataCounter
                0x00000000        0x6 ..\obj\stm32f10x_dma.o
 .text.DMA_GetFlagStatus
                0x00000000       0x1c ..\obj\stm32f10x_dma.o
 .text.DMA_GetITStatus
                0x00000000       0x1c ..\obj\stm32f10x_dma.o
 .text          0x00000000        0x0 ..\obj\misc.o
 .data          0x00000000        0x0 ..\obj\misc.o
 .bss           0x00000000        0x0 ..\obj\misc.o
 .text.NVIC_PriorityGroupConfig
                0x00000000       0x14 ..\obj\misc.o
 .text.NVIC_SetVectorTable
                0x00000000       0x14 ..\obj\misc.o
 .text.NVIC_SystemLPConfig
                0x00000000       0x18 ..\obj\misc.o
 .text.SysTick_CLKSourceConfig
                0x00000000       0x18 ..\obj\misc.o
 .text          0x00000000        0x0 ..\obj\Eeprom.o
 .bss           0x00000000        0x0 ..\obj\Eeprom.o
 .text.flash_ready
                0x00000000       0x14 ..\obj\Eeprom.o
 .text.DataWhenPowerOffWriteToFlash
                0x00000000       0x40 ..\obj\Eeprom.o
 .text.DataWhenPowerOffWriteToFlash_CRC
                0x00000000       0x60 ..\obj\Eeprom.o
 .text          0x00000000        0x0 ..\obj\usart.o
 .data          0x00000000        0x0 ..\obj\usart.o
 .text.USART_PutChar
                0x00000000       0x70 ..\obj\usart.o
 .text          0x00000000        0x0 c:/program files (x86)/gnu tools arm embedded/4.6 2012q4/bin/../lib/gcc/arm-none-eabi/4.6.2/../../../../arm-none-eabi/lib/armv7-m\libg.a(lib_a-memcpy.o)
 .data          0x00000000        0x0 c:/program files (x86)/gnu tools arm embedded/4.6 2012q4/bin/../lib/gcc/arm-none-eabi/4.6.2/../../../../arm-none-eabi/lib/armv7-m\libg.a(lib_a-memcpy.o)
 .bss           0x00000000        0x0 c:/program files (x86)/gnu tools arm embedded/4.6 2012q4/bin/../lib/gcc/arm-none-eabi/4.6.2/../../../../arm-none-eabi/lib/armv7-m\libg.a(lib_a-memcpy.o)

Memory Configuration

Name             Origin             Length             Attributes
rom              0x08000000         0x00010000         xr
ram              0x20000000         0x00002000         xrw
*default*        0x00000000         0xffffffff

Linker script and memory map

                0x20002000                _eram = 0x20002000

.text           0x08000000     0x519f
 *(.isr_vector)
 .isr_vector    0x08000000      0x124 ..\obj\startup_stm32f10x_ld_vl.o
                0x08000000                g_pfnVectors
 *(.text*)
 .text.Menu_GetCurrentMenu
                0x08000124        0xc ..\obj\MicroMenu2_1.o
                0x08000124                Menu_GetCurrentMenu
 .text.Menu_Navigate
                0x08000130       0x30 ..\obj\MicroMenu2_1.o
                0x08000130                Menu_Navigate
 .text.Menu_SetGenericWriteCallback
                0x08000160       0x14 ..\obj\MicroMenu2_1.o
                0x08000160                Menu_SetGenericWriteCallback
 .text.Menu_SelectItem
                0x08000174       0x20 ..\obj\MicroMenu2_1.o
                0x08000174                Menu_SelectItem
 .text.TIM_TimeBaseInit
                0x08000194       0x94 ..\obj\stm32f10x_tim.o
                0x08000194                TIM_TimeBaseInit
 .text.TIM_TimeBaseStructInit
                0x08000228       0x12 ..\obj\stm32f10x_tim.o
                0x08000228                TIM_TimeBaseStructInit
 .text.TIM_Cmd  0x0800023a       0x18 ..\obj\stm32f10x_tim.o
                0x0800023a                TIM_Cmd
 .text.TIM_ITConfig
                0x08000252       0x12 ..\obj\stm32f10x_tim.o
                0x08000252                TIM_ITConfig
 .text.TIM_GetITStatus
                0x08000264       0x16 ..\obj\stm32f10x_tim.o
                0x08000264                TIM_GetITStatus
 .text.TIM_ClearITPendingBit
                0x0800027a        0x8 ..\obj\stm32f10x_tim.o
                0x0800027a                TIM_ClearITPendingBit
 *fill*         0x08000282        0x2 00
 .text.Default_Reset_Handler
                0x08000284       0x48 ..\obj\startup_stm32f10x_ld_vl.o
                0x08000284                Default_Reset_Handler
                0x08000284                Reset_Handler
 .text.Default_Handler
                0x080002cc        0x2 ..\obj\startup_stm32f10x_ld_vl.o
                0x080002cc                EXTI2_IRQHandler
                0x080002cc                DebugMon_Handler
                0x080002cc                TIM1_CC_IRQHandler
                0x080002cc                HardFault_Handler
                0x080002cc                SysTick_Handler
                0x080002cc                PVD_IRQHandler
                0x080002cc                PendSV_Handler
                0x080002cc                NMI_Handler
                0x080002cc                EXTI3_IRQHandler
                0x080002cc                EXTI0_IRQHandler
                0x080002cc                UsageFault_Handler
                0x080002cc                SPI1_IRQHandler
                0x080002cc                TAMPER_IRQHandler
                0x080002cc                TIM6_DAC_IRQHandler
                0x080002cc                DMA1_Channel4_IRQHandler
                0x080002cc                ADC1_IRQHandler
                0x080002cc                RTC_IRQHandler
                0x080002cc                DMA1_Channel7_IRQHandler
                0x080002cc                I2C1_EV_IRQHandler
                0x080002cc                DMA1_Channel6_IRQHandler
                0x080002cc                RCC_IRQHandler
                0x080002cc                DMA1_Channel1_IRQHandler
                0x080002cc                CEC_IRQHandler
                0x080002cc                EXTI15_10_IRQHandler
                0x080002cc                EXTI9_5_IRQHandler
                0x080002cc                MemManage_Handler
                0x080002cc                SVC_Handler
                0x080002cc                DMA1_Channel5_IRQHandler
                0x080002cc                EXTI4_IRQHandler
                0x080002cc                TIM1_TRG_COM_TIM17_IRQHandler
                0x080002cc                DMA1_Channel3_IRQHandler
                0x080002cc                WWDG_IRQHandler
                0x080002cc                TIM2_IRQHandler
                0x080002cc                EXTI1_IRQHandler
                0x080002cc                RTCAlarm_IRQHandler
                0x080002cc                USART2_IRQHandler
                0x080002cc                DMA1_Channel2_IRQHandler
                0x080002cc                FLASH_IRQHandler
                0x080002cc                BusFault_Handler
                0x080002cc                I2C1_ER_IRQHandler
                0x080002cc                TIM1_BRK_TIM15_IRQHandler
 *fill*         0x080002ce        0x2 00
 .text.WriteInLOG
                0x080002d0      0x16c ..\obj\General.o
                0x080002d0                WriteInLOG
 .text.WriteInLOGc
                0x0800043c      0x168 ..\obj\General.o
                0x0800043c                WriteInLOGc
 .text.InfoToUARTBeforeStart
                0x080005a4      0x13c ..\obj\General.o
                0x080005a4                InfoToUARTBeforeStart
 .text.SystemInit
                0x080006e0       0xd4 ..\obj\system_stm32f10x.o
                0x080006e0                SystemInit
 .text.DelaymSec
                0x080007b4       0x24 ..\obj\hd44780_driver.o
                0x080007b4                DelaymSec
 .text.DelayuSec
                0x080007d8       0x20 ..\obj\hd44780_driver.o
                0x080007d8                DelayuSec
 .text.strobe   0x080007f8       0x24 ..\obj\hd44780_driver.o
                0x080007f8                strobe
 .text.lcd_set_4bit_mode
                0x0800081c       0x44 ..\obj\hd44780_driver.o
                0x0800081c                lcd_set_4bit_mode
 .text.lcd_send
                0x08000860       0x9c ..\obj\hd44780_driver.o
                0x08000860                lcd_send
 .text.lcd_set_state
                0x080008fc       0x26 ..\obj\hd44780_driver.o
                0x080008fc                lcd_set_state
 .text.lcd_clear
                0x08000922        0x8 ..\obj\hd44780_driver.o
                0x08000922                lcd_clear
 .text.lcd_init
                0x0800092a       0x1e ..\obj\hd44780_driver.o
                0x0800092a                lcd_init
 .text.LcdOutbyNumber
                0x08000948        0x8 ..\obj\hd44780_driver.o
                0x08000948                LcdOutbyNumber
 .text.lcd_set_xy
                0x08000950       0x1c ..\obj\hd44780_driver.o
                0x08000950                lcd_set_xy
 .text.LcdOut   0x0800096c       0x7c ..\obj\hd44780_driver.o
                0x0800096c                LcdOut
 .text.lcd_set_user_char
                0x080009e8       0x2e ..\obj\hd44780_driver.o
                0x080009e8                lcd_set_user_char
 .text.SetSymbols
                0x08000a16      0x168 ..\obj\hd44780_driver.o
                0x08000a16                SetSymbols
 .text.PrintToLCD
                0x08000b7e        0x6 ..\obj\hd44780_driver.o
                0x08000b7e                PrintToLCD
 .text.PrintToLCD_xy
                0x08000b84       0x18 ..\obj\hd44780_driver.o
                0x08000b84                PrintToLCD_xy
 .text.InitLCD  0x08000b9c       0xe0 ..\obj\hd44780_driver.o
                0x08000b9c                InitLCD
 .text.GPIO_Init
                0x08000c7c       0xaa ..\obj\stm32f10x_gpio.o
                0x08000c7c                GPIO_Init
 .text.GPIO_ReadInputDataBit
                0x08000d26        0xc ..\obj\stm32f10x_gpio.o
                0x08000d26                GPIO_ReadInputDataBit
 *fill*         0x08000d32        0x2 00
 .text.MenuLog_Enter
                0x08000d34        0xc ..\obj\main.o
                0x08000d34                MenuLog_Enter
 .text.MenuSettingsWriteToFlash_Enter
                0x08000d40        0x4 ..\obj\main.o
                0x08000d40                MenuSettingsWriteToFlash_Enter
 .text.MenuCalibrationWriteToFlash_Enter
                0x08000d44       0x14 ..\obj\main.o
                0x08000d44                MenuCalibrationWriteToFlash_Enter
 .text.Generic_Write
                0x08000d58        0xc ..\obj\main.o
                0x08000d58                Generic_Write
 .text.MenuCharge_Enter
                0x08000d64       0x5c ..\obj\main.o
                0x08000d64                MenuCharge_Enter
 .text.MenuDischarge_Enter
                0x08000dc0       0x48 ..\obj\main.o
                0x08000dc0                MenuDischarge_Enter
 .text.Delay_mSec
                0x08000e08       0x24 ..\obj\main.o
                0x08000e08                Delay_mSec
 .text.MenuOption_Enter
                0x08000e2c       0x30 ..\obj\main.o
                0x08000e2c                MenuOption_Enter
 .text.MenuSettingsBatteryType_Enter
                0x08000e5c      0x11c ..\obj\main.o
                0x08000e5c                MenuSettingsBatteryType_Enter
 .text.Delay_ms
                0x08000f78       0x30 ..\obj\main.o
                0x08000f78                Delay_ms
 .text.MenuLog  0x08000fa8       0x90 ..\obj\main.o
                0x08000fa8                MenuLog
 .text.MenuCalibration_Current_to_0
                0x08001038       0x40 ..\obj\main.o
                0x08001038                MenuCalibration_Current_to_0
 .text.MenuCalibration_BackToFactory
                0x08001078       0x7c ..\obj\main.o
                0x08001078                MenuCalibration_BackToFactory
 .text.MenuSettingsChargeTime
                0x080010f4       0x4c ..\obj\main.o
                0x080010f4                MenuSettingsChargeTime
 .text.MenuSettingsBatteryType
                0x08001140       0xf0 ..\obj\main.o
                0x08001140                MenuSettingsBatteryType
 .text.MenuSettingsLowVolt
                0x08001230       0x44 ..\obj\main.o
                0x08001230                MenuSettingsLowVolt
 .text.MenuSettingsMaxVolt
                0x08001274       0x44 ..\obj\main.o
                0x08001274                MenuSettingsMaxVolt
 .text.MenuSettingsSwngChrgTime
                0x080012b8       0x3c ..\obj\main.o
                0x080012b8                MenuSettingsSwngChrgTime
 .text.MenuSettingsSwngDChrgTime
                0x080012f4       0x3c ..\obj\main.o
                0x080012f4                MenuSettingsSwngDChrgTime
 .text.MenuSettingsChargeAddapt
                0x08001330       0x80 ..\obj\main.o
                0x08001330                MenuSettingsChargeAddapt
 .text.SelectedOption
                0x080013b0       0x2c ..\obj\main.o
                0x080013b0                SelectedOption
 .text.MenuSettingsSaveMenuPosWhenOFF
                0x080013dc       0x94 ..\obj\main.o
                0x080013dc                MenuSettingsSaveMenuPosWhenOFF
 .text.BUT_Debrief
                0x08001470       0x6c ..\obj\main.o
                0x08001470                BUT_Debrief
 .text.BUT_GetKey
                0x080014dc       0x14 ..\obj\main.o
                0x080014dc                BUT_GetKey
 .text.TIM7_IRQHandler
                0x080014f0       0x2c ..\obj\main.o
                0x080014f0                TIM7_IRQHandler
 .text.TIM1_UP_TIM16_IRQHandler
                0x0800151c       0x80 ..\obj\main.o
                0x0800151c                TIM1_UP_TIM16_IRQHandler
 .text.OUT_OFF  0x0800159c       0x28 ..\obj\main.o
                0x0800159c                OUT_OFF
 .text.OUT_ON   0x080015c4       0x28 ..\obj\main.o
                0x080015c4                OUT_ON
 .text.MenuCalibration_Resist_Comp_5V1A
                0x080015ec       0xd0 ..\obj\main.o
                0x080015ec                MenuCalibration_Resist_Comp_5V1A
 .text.MenuCalibration_VoltagePS3
                0x080016bc       0x74 ..\obj\main.o
                0x080016bc                MenuCalibration_VoltagePS3
 .text.MenuCalibration_VoltagePS2
                0x08001730       0x74 ..\obj\main.o
                0x08001730                MenuCalibration_VoltagePS2
 .text.MenuCalibration_VoltagePS1
                0x080017a4       0x74 ..\obj\main.o
                0x080017a4                MenuCalibration_VoltagePS1
 .text.MenuCalibration_Current_mkA1
                0x08001818       0x70 ..\obj\main.o
                0x08001818                MenuCalibration_Current_mkA1
 .text.MenuCalibration_Current_mA1
                0x08001888       0x70 ..\obj\main.o
                0x08001888                MenuCalibration_Current_mA1
 .text.MenuPowerSupply
                0x080018f8      0x1b4 ..\obj\main.o
                0x080018f8                MenuPowerSupply
 .text.LOAD_ON  0x08001aac       0x20 ..\obj\main.o
                0x08001aac                LOAD_ON
 .text.LOAD_OFF
                0x08001acc       0x20 ..\obj\main.o
                0x08001acc                LOAD_OFF
 .text.OFF      0x08001aec        0xe ..\obj\main.o
                0x08001aec                OFF
 *fill*         0x08001afa        0x2 00
 .text.MenuDIAGNOSTIC
                0x08001afc      0x2f4 ..\obj\main.o
                0x08001afc                MenuDIAGNOSTIC
 .text.MenuLoad
                0x08001df0       0xb4 ..\obj\main.o
                0x08001df0                MenuLoad
 .text.startup.main
                0x08001ea4      0x454 ..\obj\main.o
                0x08001ea4                main
 .text.ADC1_CH_DMA_Config
                0x080022f8      0x144 ..\obj\ADC.o
                0x080022f8                ADC1_CH_DMA_Config
 .text.init_timer3
                0x0800243c       0x54 ..\obj\ADC.o
                0x0800243c                init_timer3
 .text.MedianFilter
                0x08002490       0x98 ..\obj\ADC.o
                0x08002490                MedianFilter
 .text.MedianFilter1
                0x08002528       0x98 ..\obj\ADC.o
                0x08002528                MedianFilter1
 .text.MedianFilter2
                0x080025c0       0x98 ..\obj\ADC.o
                0x080025c0                MedianFilter2
 .text.middle_of_3_ImkA
                0x08002658       0x44 ..\obj\ADC.o
                0x08002658                middle_of_3_ImkA
 .text.middle_of_3Umax
                0x0800269c       0x44 ..\obj\ADC.o
                0x0800269c                middle_of_3Umax
 .text.TIM3_IRQHandler
                0x080026e0      0x224 ..\obj\ADC.o
                0x080026e0                TIM3_IRQHandler
 .text.RCC_ADCCLKConfig
                0x08002904       0x14 ..\obj\stm32f10x_rcc.o
                0x08002904                RCC_ADCCLKConfig
 .text.RCC_GetClocksFreq
                0x08002918       0x90 ..\obj\stm32f10x_rcc.o
                0x08002918                RCC_GetClocksFreq
 .text.RCC_AHBPeriphClockCmd
                0x080029a8       0x18 ..\obj\stm32f10x_rcc.o
                0x080029a8                RCC_AHBPeriphClockCmd
 .text.RCC_APB2PeriphClockCmd
                0x080029c0       0x18 ..\obj\stm32f10x_rcc.o
                0x080029c0                RCC_APB2PeriphClockCmd
 .text.RCC_APB1PeriphClockCmd
                0x080029d8       0x18 ..\obj\stm32f10x_rcc.o
                0x080029d8                RCC_APB1PeriphClockCmd
 .text.Init_Out
                0x080029f0       0xf0 ..\obj\Init_.o
                0x080029f0                Init_Out
 .text.Init_button
                0x08002ae0       0x84 ..\obj\Init_.o
                0x08002ae0                Init_button
 .text.init_timer7
                0x08002b64       0x54 ..\obj\Init_.o
                0x08002b64                init_timer7
 .text.init_timer16
                0x08002bb8       0x5c ..\obj\Init_.o
                0x08002bb8                init_timer16
 .text.InitTimer2ForDelay
                0x08002c14       0x20 ..\obj\Init_.o
                0x08002c14                InitTimer2ForDelay
 .text.Initialization
                0x08002c34       0x46 ..\obj\Init_.o
                0x08002c34                Initialization
 *fill*         0x08002c7a        0x2 00
 .text.ADC_Init
                0x08002c7c       0x48 ..\obj\stm32f10x_adc.o
                0x08002c7c                ADC_Init
 .text.ADC_Cmd  0x08002cc4       0x12 ..\obj\stm32f10x_adc.o
                0x08002cc4                ADC_Cmd
 .text.ADC_DMACmd
                0x08002cd6       0x12 ..\obj\stm32f10x_adc.o
                0x08002cd6                ADC_DMACmd
 .text.ADC_ResetCalibration
                0x08002ce8        0xa ..\obj\stm32f10x_adc.o
                0x08002ce8                ADC_ResetCalibration
 .text.ADC_GetResetCalibrationStatus
                0x08002cf2        0x8 ..\obj\stm32f10x_adc.o
                0x08002cf2                ADC_GetResetCalibrationStatus
 .text.ADC_StartCalibration
                0x08002cfa        0xa ..\obj\stm32f10x_adc.o
                0x08002cfa                ADC_StartCalibration
 .text.ADC_GetCalibrationStatus
                0x08002d04        0x8 ..\obj\stm32f10x_adc.o
                0x08002d04                ADC_GetCalibrationStatus
 .text.ADC_SoftwareStartConvCmd
                0x08002d0c       0x12 ..\obj\stm32f10x_adc.o
                0x08002d0c                ADC_SoftwareStartConvCmd
 .text.ADC_RegularChannelConfig
                0x08002d1e       0x9c ..\obj\stm32f10x_adc.o
                0x08002d1e                ADC_RegularChannelConfig
 *fill*         0x08002dba        0x2 00
 .text.ADC_TempSensorVrefintCmd
                0x08002dbc       0x18 ..\obj\stm32f10x_adc.o
                0x08002dbc                ADC_TempSensorVrefintCmd
 .text.USART_Init
                0x08002dd4       0xb0 ..\obj\stm32f10x_usart.o
                0x08002dd4                USART_Init
 .text.USART_Cmd
                0x08002e84       0x18 ..\obj\stm32f10x_usart.o
                0x08002e84                USART_Cmd
 .text.USART_ITConfig
                0x08002e9c       0x32 ..\obj\stm32f10x_usart.o
                0x08002e9c                USART_ITConfig
 .text.USART_SendData
                0x08002ece        0x8 ..\obj\stm32f10x_usart.o
                0x08002ece                USART_SendData
 .text.USART_GetFlagStatus
                0x08002ed6        0xc ..\obj\stm32f10x_usart.o
                0x08002ed6                USART_GetFlagStatus
 *fill*         0x08002ee2        0x2 00
 .text.itoa     0x08002ee4       0x74 ..\obj\Lib.o
                0x08002ee4                itoa
 .text.itoaP    0x08002f58       0x74 ..\obj\Lib.o
                0x08002f58                itoaP
 .text.itoa_koma
                0x08002fcc       0xd4 ..\obj\Lib.o
                0x08002fcc                itoa_koma
 .text.strlen1  0x080030a0       0x12 ..\obj\Lib.o
                0x080030a0                strlen1
 .text.Merge3Strings
                0x080030b2       0x46 ..\obj\Lib.o
                0x080030b2                Merge3Strings
 .text.ClockStringWithSec
                0x080030f8       0xe2 ..\obj\Lib.o
                0x080030f8                ClockStringWithSec
 .text.ClockStringNoSec
                0x080031da       0x96 ..\obj\Lib.o
                0x080031da                ClockStringNoSec
 .text.DMA_Init
                0x08003270       0x3c ..\obj\stm32f10x_dma.o
                0x08003270                DMA_Init
 .text.DMA_Cmd  0x080032ac       0x16 ..\obj\stm32f10x_dma.o
                0x080032ac                DMA_Cmd
 .text.DMA_ITConfig
                0x080032c2       0x10 ..\obj\stm32f10x_dma.o
                0x080032c2                DMA_ITConfig
 *fill*         0x080032d2        0x2 00
 .text.DMA_ClearFlag
                0x080032d4       0x14 ..\obj\stm32f10x_dma.o
                0x080032d4                DMA_ClearFlag
 .text.DMA_ClearITPendingBit
                0x080032e8       0x14 ..\obj\stm32f10x_dma.o
                0x080032e8                DMA_ClearITPendingBit
 .text.NVIC_Init
                0x080032fc       0x64 ..\obj\misc.o
                0x080032fc                NVIC_Init
 .text.flash_erase_page
                0x08003360       0x44 ..\obj\Eeprom.o
                0x08003360                flash_erase_page
 .text.flash_unlock
                0x080033a4       0x18 ..\obj\Eeprom.o
                0x080033a4                flash_unlock
 .text.flash_lock
                0x080033bc       0x10 ..\obj\Eeprom.o
                0x080033bc                flash_lock
 .text.flash_write
                0x080033cc       0x50 ..\obj\Eeprom.o
                0x080033cc                flash_write
 .text.flash_write_block
                0x0800341c       0x60 ..\obj\Eeprom.o
                0x0800341c                flash_write_block
 .text.flash_read_block
                0x0800347c       0x2c ..\obj\Eeprom.o
                0x0800347c                flash_read_block
 .text.flash_read
                0x080034a8       0x4c ..\obj\Eeprom.o
                0x080034a8                flash_read
 .text.CalibrationWriteToFlash
                0x080034f4       0x6c ..\obj\Eeprom.o
                0x080034f4                CalibrationWriteToFlash
 .text.CalibrationFactoryWriteToFlash
                0x08003560       0x6c ..\obj\Eeprom.o
                0x08003560                CalibrationFactoryWriteToFlash
 .text.CalibrationReadFromFlash
                0x080035cc       0x98 ..\obj\Eeprom.o
                0x080035cc                CalibrationReadFromFlash
 .text.CalibrationReadFromFlashForVerify
                0x08003664       0x98 ..\obj\Eeprom.o
                0x08003664                CalibrationReadFromFlashForVerify
 .text.SettingsWriteToFlash
                0x080036fc       0x5c ..\obj\Eeprom.o
                0x080036fc                SettingsWriteToFlash
 .text.SettingsFactoryWriteToFlash
                0x08003758       0x5c ..\obj\Eeprom.o
                0x08003758                SettingsFactoryWriteToFlash
 .text.SettingsReadFromFlash
                0x080037b4       0x80 ..\obj\Eeprom.o
                0x080037b4                SettingsReadFromFlash
 .text.SettingsReadFromFlashForVerify
                0x08003834       0x80 ..\obj\Eeprom.o
                0x08003834                SettingsReadFromFlashForVerify
 .text.DataWhenPowerOff_Factory_WriteToFlash
                0x080038b4       0x34 ..\obj\Eeprom.o
                0x080038b4                DataWhenPowerOff_Factory_WriteToFlash
 .text.DataWhenPowerOffReadFromFlash
                0x080038e8       0x40 ..\obj\Eeprom.o
                0x080038e8                DataWhenPowerOffReadFromFlash
 .text.DataWhenPowerOffReadFromFlashForVerify
                0x08003928       0x40 ..\obj\Eeprom.o
                0x08003928                DataWhenPowerOffReadFromFlashForVerify
 .text.ReadFromFlash
                0x08003968       0x40 ..\obj\Eeprom.o
                0x08003968                ReadFromFlash
 .text.CalcCRC8
                0x080039a8       0x34 ..\obj\Eeprom.o
                0x080039a8                CalcCRC8
 .text.FactoryWriteToFlash_CRC
                0x080039dc      0x124 ..\obj\Eeprom.o
                0x080039dc                FactoryWriteToFlash_CRC
 .text.SettingsWriteToFlash_CRC
                0x08003b00       0x8c ..\obj\Eeprom.o
                0x08003b00                SettingsWriteToFlash_CRC
 .text.CalibrationWriteToFlash_CRC
                0x08003b8c       0x60 ..\obj\Eeprom.o
                0x08003b8c                CalibrationWriteToFlash_CRC
 .text.USART1Init
                0x08003bec       0x98 ..\obj\usart.o
                0x08003bec                USART1Init
 .text.PutChar  0x08003c84       0x34 ..\obj\usart.o
                0x08003c84                PutChar
 .text.USART1_IRQHandler
                0x08003cb8       0x74 ..\obj\usart.o
                0x08003cb8                USART1_IRQHandler
 .text.Print_to_USART1
                0x08003d2c       0x40 ..\obj\usart.o
                0x08003d2c                Print_to_USART1
 .text.TransmitChar
                0x08003d6c       0x20 ..\obj\usart.o
                0x08003d6c                TransmitChar
 .text.TransmitString
                0x08003d8c       0x20 ..\obj\usart.o
                0x08003d8c                TransmitString
 .text.Print_to_USART1_d
                0x08003dac       0x30 ..\obj\usart.o
                0x08003dac                Print_to_USART1_d
 .text.memcpy   0x08003ddc       0x84 c:/program files (x86)/gnu tools arm embedded/4.6 2012q4/bin/../lib/gcc/arm-none-eabi/4.6.2/../../../../arm-none-eabi/lib/armv7-m\libg.a(lib_a-memcpy.o)
                0x08003ddc                memcpy
 *(.init)
 *(.fini)
 *crtbegin.o(.ctors)
 *crtbegin?.o(.ctors)
 *(EXCLUDE_FILE(*crtend.o *crtend?.o) .ctors)
 *(SORT(.ctors.*))
 *(.ctors)
 *crtbegin.o(.dtors)
 *crtbegin?.o(.dtors)
 *(EXCLUDE_FILE(*crtend.o *crtend?.o) .dtors)
 *(SORT(.dtors.*))
 *(.dtors)
 *(.rodata*)
 .rodata        0x08003e60       0x18 ..\obj\MicroMenu2_1.o
                0x08003e60                NULL_MENU
 .rodata.str1.1
                0x08003e78      0x1fa ..\obj\General.o
 *fill*         0x08004072        0x2 00
 .rodata        0x08004074      0x9c8 ..\obj\main.o
                0x08004074                Menu_2_1
                0x080040a0                Menu_3_1
                0x080040cc                Menu_4_1
                0x080040f8                Menu_5_1
                0x08004124                Menu_6_1
                0x08004150                Menu_7_1
                0x0800417c                Menu_8_1
                0x080041a8                Menu_6_1a
                0x080041d4                Menu_9_1
                0x08004200                Menu_11_1
                0x0800422c                Menu_10_2_1
                0x08004258                Menu_10_1_1
                0x08004284                Menu_10_4_1
                0x080042b0                Menu_10_3_1
                0x080042dc                Menu_10_7_1
                0x080042f8                Menu_10_6_1
                0x08004324                Menu_10_5_1
                0x08004350                Menu_10_8_1
                0x0800436c                Menu_10_9_1
                0x08004388                Menu_1_1_1
                0x080043b4                Menu_1_1_1a
                0x080043e0                Menu_1_2_1
                0x0800440c                Menu_1_3_1
                0x08004438                Menu_1_4_1
                0x08004464                Menu_1_5_1
                0x08004490                Menu_1_6_1
                0x080044bc                Menu_1_S_1
                0x080044e8                Menu_10_10
                0x08004514                Menu_10_9
                0x08004540                Menu_10_8
                0x0800456c                Menu_10_7
                0x08004598                Menu_10_6
                0x080045c4                Menu_10_5
                0x080045f0                Menu_10_4
                0x0800461c                Menu_10_3
                0x08004648                Menu_10_2
                0x08004674                Menu_10_1
                0x080046a0                Menu_1_7
                0x080046cc                Menu_1_S
                0x080046f8                Menu_1_6
                0x08004724                Menu_1_5
                0x08004750                Menu_1_4
                0x0800477c                Menu_1_3
                0x080047a8                Menu_1_2
                0x080047d4                Menu_1_1a
                0x08004800                Menu_1_1
                0x0800482c                Menu_10
                0x08004858                Menu_11
                0x08004884                Menu_9
                0x080048b0                Menu_8
                0x080048dc                Menu_7
                0x08004908                Menu_6a
                0x08004934                Menu_6
                0x08004960                Menu_5
                0x0800498c                Menu_4
                0x080049b8                Menu_3
                0x080049e4                Menu_2
                0x08004a10                Menu_1
 .rodata.str1.1
                0x08004a3c      0x348 ..\obj\main.o
                                0x377 (size before relaxing)
 .rodata.str1.1
                0x08004d84        0x5 ..\obj\ADC.o
 .rodata        0x08004d89      0x100 ..\obj\Eeprom.o
 .rodata.str1.1
                0x08004e89      0x316 ..\obj\Eeprom.o
                                0x428 (size before relaxing)
 *(.eh_fram e*)

.glue_7         0x080051a0        0x0
 .glue_7        0x00000000        0x0 linker stubs

.glue_7t        0x080051a0        0x0
 .glue_7t       0x00000000        0x0 linker stubs

.vfp11_veneer   0x080051a0        0x0
 .vfp11_veneer  0x00000000        0x0 linker stubs

.v4_bx          0x080051a0        0x0
 .v4_bx         0x00000000        0x0 linker stubs

.ARM.extab
 *(.ARM.extab* .gnu.linkonce.armextab.*)
                0x080051a0                __exidx_start = .

.ARM.exidx
 *(.ARM.exidx* .gnu.linkonce.armexidx.*)
                0x080051a0                __exidx_end = .
                0x080051a0                __etext = .
                0x0800519f                _sidata = __etext

.data           0x20000000      0x274 load address 0x0800519f
                0x20000000                __data_start__ = .
                0x20000000                _sdata = __data_start__
 *(vtable)
 *(.data*)
 .data          0x20000000        0x4 ..\obj\MicroMenu2_1.o
 .data          0x20000004      0x1fc ..\obj\General.o
                0x20000004                CalibrationData
                0x20000054                SettingsData
                0x20000094                SaveDataWhenPowerOff
                0x200000ac                resistor01
                0x200000b0                SaveDataWhenPowerOffFactory
                0x200000c8                SaveDataWhenPowerOffForVerify
                0x200000e0                SettingsDataFactory
                0x20000120                SettingsDataForVerify
                0x20000160                CalibrationDataFactory
                0x200001b0                CalibrationDataForVerify
 .data          0x20000200       0x20 ..\obj\hd44780_driver.o
                0x20000200                russ
 .data          0x20000220       0x16 ..\obj\main.o
                0x20000223                Version
                0x20000234                ChargedStatus
 *fill*         0x20000236        0x2 00
 .data          0x20000238       0x24 ..\obj\ADC.o
 .data          0x2000025c       0x14 ..\obj\stm32f10x_rcc.o
 .data          0x20000270        0x1 ..\obj\Eeprom.o
                0x20000274                . = ALIGN (0x4)
 *fill*         0x20000271        0x3 00
                0x20000274                PROVIDE (__preinit_array_start, .)
 *(.preinit_array)
                0x20000274                PROVIDE (__preinit_array_end, .)
                0x20000274                . = ALIGN (0x4)
                0x20000274                PROVIDE (__init_array_start, .)
 *(SORT(.init_array.*))
 *(.init_array)
                0x20000274                PROVIDE (__init_array_end, .)
                0x20000274                . = ALIGN (0x4)
                0x20000274                PROVIDE (__fini_array_start, .)
 *(SORT(.fini_array.*))
 *(.fini_array)
                0x20000274                PROVIDE (__fini_array_end, .)
 *(.jcr*)
                0x20000274                . = ALIGN (0x4)
                0x20000274                __data_end__ = .
                0x20000274                _edata = __data_end__

.bss            0x20000274      0x668 load address 0x08005414
                0x20000274                . = ALIGN (0x4)
                0x20000274                __bss_start__ = .
                0x20000274                _sbss = __bss_start__
 *(.bss*)
 .bss           0x20000274        0x4 ..\obj\MicroMenu2_1.o
 .bss           0x20000278       0x24 ..\obj\General.o
                0x20000278                CurrentCapacity
                0x2000027c                CurrentSumCap
                0x20000280                CurrentSum
                0x20000284                CurrentTimerCap
                0x20000288                CurrentTimer
                0x2000028c                Current
                0x20000290                Current_mA
                0x20000294                Current_mkA
                0x20000298                U_OUT_ForSetResistance
 .bss           0x2000029c        0x2 ..\obj\hd44780_driver.o
                0x2000029c                pos_x
                0x2000029d                pos_y
 *fill*         0x2000029e        0x2 00
 .bss           0x200002a0       0x6c ..\obj\main.o
                0x200002a0                i_LogItems
                0x200002a4                BatteryCapacityCharge
                0x200002a8                ChargeTimeSec
                0x200002ac                BatteryCapacityDischargeCurrent
                0x200002b0                DischargeTimeSec
                0x200002b4                CountShowBT
                0x200002b6                comp
                0x200002b8                pressedKey
                0x200002bc                PowerOffTimesec
                0x200002c0                TimerForReadyMeasurement_ms
                0x200002c4                ChargeStatusForTimer
                0x200002c5                DisChargeStatusForTimer
                0x200002c6                Status_Timer_Sec
                0x200002c8                Timer_Sec
                0x200002cc                time_sec
                0x200002d0                On_off
                0x200002d1                Status_Out
                0x200002d2                EnterInMenu_Status
                0x200002d3                CountShow
                0x200002d4                Blink_message_counter
                0x200002d5                Status_Load
                0x200002d6                ChargeDischargeState
                0x200002d7                CountShow1
                0x200002d8                BatteryCapacityDischargeCurrentAfterPOwerUp
                0x200002dc                InitiStatus
                0x200002e0                DischargeTimeSec_Previous
                0x200002e4                BATERYSTATUS
                0x200002e5                OffCurrentStatus
                0x200002e6                U_BatteryTmp
                0x200002e8                BatteryVeryLow
                0x200002e9                BatteryLow
                0x200002ec                OffCurrent_Timer
                0x200002f0                VeryLowBattery_Timer
                0x200002f4                U_Battery_Timer
                0x200002f8                SwingtimeSec
                0x200002fc                PopUpMessage
                0x20000300                time_hour
                0x20000304                time_min
                0x20000308                sec
 .bss           0x2000030c      0x260 ..\obj\ADC.o
                0x20000540                Ut
                0x20000542                U_PS
                0x20000544                U_Controller
                0x20000546                U_OUTtmp
                0x20000548                U_IN
                0x2000054c                I_Raw_mA
                0x20000550                I_Raw_mkA
                0x20000554                Current_1of3
                0x20000558                EnterToSwitch
                0x20000559                HighCurrentStatus
                0x2000055c                OffTimer
                0x20000560                U_5V
                0x20000562                U_5V_1Wire
                0x20000564                U_12V
                0x20000566                Temperature
                0x20000568                U_OUT
 .bss           0x2000056c       0x21 ..\obj\Lib.o
 .bss           0x2000058d        0x6 ..\obj\usart.o
                0x2000058d                RXcount
                0x2000058e                RXtail
                0x2000058f                TXcount
                0x20000590                TXhead
                0x20000591                TXtail
                0x20000592                RXhead
 *(COMMON)
 *fill*         0x20000593        0x1 00
 COMMON         0x20000594      0x1a0 ..\obj\General.o
                0x20000594                Current_RAW
                0x20000598                LoggingData
 COMMON         0x20000734       0x18 ..\obj\main.o
                0x20000734                ChargeDurationSec
                0x20000738                RegularConvData
                0x20000748                SelectedOptionValue
 COMMON         0x2000074c      0x190 ..\obj\usart.o
                0x2000074c                RXBuf
                0x20000814                TXBuf
                0x200008dc                . = ALIGN (0x4)
                0x200008dc                __bss_end__ = .
                0x200008dc                _ebss = __bss_end__

.heap           0x200008dc        0x0
                0x200008dc                __end__ = .
                0x200008dc                _end = __end__
                0x200008dc                end = __end__
 *(.heap*)
                0x200008dc                __HeapLimit = .

.co_stack       0x200008dc      0x404 load address 0x08005a7c
                0x200008e0                . = ALIGN (0x8)
 *fill*         0x200008dc        0x4 00
 *(.co_stack .co_stack.*)
 .co_stack      0x200008e0      0x400 ..\obj\startup_stm32f10x_ld_vl.o
                0x200008e0                pulStack
                0x20002000                __StackTop = (ORIGIN (ram) + 0x2000)
                0x20001bfc                __StackLimit = (__StackTop - SIZEOF (.co_stack))
                0x20002000                PROVIDE (__stack, __StackTop)
                0x00000001                ASSERT ((__StackLimit >= __HeapLimit), region ram  overflowed with stack)
LOAD ..\obj\MicroMenu2_1.o
LOAD ..\obj\stm32f10x_tim.o
LOAD ..\obj\startup_stm32f10x_ld_vl.o
LOAD ..\obj\General.o
LOAD ..\obj\system_stm32f10x.o
LOAD ..\obj\hd44780_driver.o
LOAD ..\obj\stm32f10x_gpio.o
LOAD ..\obj\main.o
LOAD ..\obj\ADC.o
LOAD ..\obj\stm32f10x_rcc.o
LOAD ..\obj\Init_.o
LOAD ..\obj\stm32f10x_adc.o
LOAD ..\obj\stm32f10x_usart.o
LOAD ..\obj\Lib.o
LOAD ..\obj\stm32f10x_dma.o
LOAD ..\obj\misc.o
LOAD ..\obj\Eeprom.o
LOAD ..\obj\usart.o
START GROUP
LOAD c:/program files (x86)/gnu tools arm embedded/4.6 2012q4/bin/../lib/gcc/arm-none-eabi/4.6.2/armv7-m\libgcc.a
LOAD c:/program files (x86)/gnu tools arm embedded/4.6 2012q4/bin/../lib/gcc/arm-none-eabi/4.6.2/../../../../arm-none-eabi/lib/armv7-m\libg.a
LOAD c:/program files (x86)/gnu tools arm embedded/4.6 2012q4/bin/../lib/gcc/arm-none-eabi/4.6.2/../../../../arm-none-eabi/lib/armv7-m\libc.a
END GROUP
OUTPUT(BMS.elf elf32-littlearm)

.debug_info     0x00000000     0xc3c6
 .debug_info    0x00000000      0x23e ..\obj\MicroMenu2_1.o
 .debug_info    0x0000023e     0x1eb4 ..\obj\stm32f10x_tim.o
 .debug_info    0x000020f2      0x140 ..\obj\startup_stm32f10x_ld_vl.o
 .debug_info    0x00002232      0x672 ..\obj\General.o
 .debug_info    0x000028a4      0x49c ..\obj\system_stm32f10x.o
 .debug_info    0x00002d40      0x694 ..\obj\hd44780_driver.o
 .debug_info    0x000033d4      0x724 ..\obj\stm32f10x_gpio.o
 .debug_info    0x00003af8     0x21e9 ..\obj\main.o
 .debug_info    0x00005ce1     0x184e ..\obj\ADC.o
 .debug_info    0x0000752f      0x973 ..\obj\stm32f10x_rcc.o
 .debug_info    0x00007ea2      0xbb0 ..\obj\Init_.o
 .debug_info    0x00008a52      0xc02 ..\obj\stm32f10x_adc.o
 .debug_info    0x00009654      0xa5f ..\obj\stm32f10x_usart.o
 .debug_info    0x0000a0b3      0x561 ..\obj\Lib.o
 .debug_info    0x0000a614      0x4a0 ..\obj\stm32f10x_dma.o
 .debug_info    0x0000aab4      0x594 ..\obj\misc.o
 .debug_info    0x0000b048      0xbb7 ..\obj\Eeprom.o
 .debug_info    0x0000bbff      0x7c7 ..\obj\usart.o

.debug_abbrev   0x00000000     0x2228
 .debug_abbrev  0x00000000      0x147 ..\obj\MicroMenu2_1.o
 .debug_abbrev  0x00000147      0x272 ..\obj\stm32f10x_tim.o
 .debug_abbrev  0x000003b9       0xb0 ..\obj\startup_stm32f10x_ld_vl.o
 .debug_abbrev  0x00000469      0x14f ..\obj\General.o
 .debug_abbrev  0x000005b8      0x17b ..\obj\system_stm32f10x.o
 .debug_abbrev  0x00000733      0x28c ..\obj\hd44780_driver.o
 .debug_abbrev  0x000009bf      0x1d9 ..\obj\stm32f10x_gpio.o
 .debug_abbrev  0x00000b98      0x3d6 ..\obj\main.o
 .debug_abbrev  0x00000f6e      0x30c ..\obj\ADC.o
 .debug_abbrev  0x0000127a      0x1d0 ..\obj\stm32f10x_rcc.o
 .debug_abbrev  0x0000144a      0x19d ..\obj\Init_.o
 .debug_abbrev  0x000015e7      0x1cf ..\obj\stm32f10x_adc.o
 .debug_abbrev  0x000017b6      0x1b8 ..\obj\stm32f10x_usart.o
 .debug_abbrev  0x0000196e      0x174 ..\obj\Lib.o
 .debug_abbrev  0x00001ae2      0x174 ..\obj\stm32f10x_dma.o
 .debug_abbrev  0x00001c56      0x14c ..\obj\misc.o
 .debug_abbrev  0x00001da2      0x2a4 ..\obj\Eeprom.o
 .debug_abbrev  0x00002046      0x1e2 ..\obj\usart.o

.debug_loc      0x00000000     0x551e
 .debug_loc     0x00000000       0xcb ..\obj\MicroMenu2_1.o
 .debug_loc     0x000000cb     0x1489 ..\obj\stm32f10x_tim.o
 .debug_loc     0x00001554       0x33 ..\obj\startup_stm32f10x_ld_vl.o
 .debug_loc     0x00001587      0x227 ..\obj\General.o
 .debug_loc     0x000017ae      0x13e ..\obj\system_stm32f10x.o
 .debug_loc     0x000018ec      0x4d9 ..\obj\hd44780_driver.o
 .debug_loc     0x00001dc5      0x439 ..\obj\stm32f10x_gpio.o
 .debug_loc     0x000021fe      0x8d2 ..\obj\main.o
 .debug_loc     0x00002ad0      0x57e ..\obj\ADC.o
 .debug_loc     0x0000304e      0x5c1 ..\obj\stm32f10x_rcc.o
 .debug_loc     0x0000360f       0xa0 ..\obj\Init_.o
 .debug_loc     0x000036af      0x81e ..\obj\stm32f10x_adc.o
 .debug_loc     0x00003ecd      0x59a ..\obj\stm32f10x_usart.o
 .debug_loc     0x00004467      0x69a ..\obj\Lib.o
 .debug_loc     0x00004b01      0x142 ..\obj\stm32f10x_dma.o
 .debug_loc     0x00004c43      0x125 ..\obj\misc.o
 .debug_loc     0x00004d68      0x5df ..\obj\Eeprom.o
 .debug_loc     0x00005347      0x1d7 ..\obj\usart.o

.debug_aranges  0x00000000      0xd98
 .debug_aranges
                0x00000000       0x38 ..\obj\MicroMenu2_1.o
 .debug_aranges
                0x00000038      0x2e0 ..\obj\stm32f10x_tim.o
 .debug_aranges
                0x00000318       0x28 ..\obj\startup_stm32f10x_ld_vl.o
 .debug_aranges
                0x00000340       0x30 ..\obj\General.o
 .debug_aranges
                0x00000370       0x28 ..\obj\system_stm32f10x.o
 .debug_aranges
                0x00000398       0xb8 ..\obj\hd44780_driver.o
 .debug_aranges
                0x00000450       0xa8 ..\obj\stm32f10x_gpio.o
 .debug_aranges
                0x000004f8      0x230 ..\obj\main.o
 .debug_aranges
                0x00000728       0x68 ..\obj\ADC.o
 .debug_aranges
                0x00000790      0x120 ..\obj\stm32f10x_rcc.o
 .debug_aranges
                0x000008b0       0x48 ..\obj\Init_.o
 .debug_aranges
                0x000008f8      0x138 ..\obj\stm32f10x_adc.o
 .debug_aranges
                0x00000a30      0x100 ..\obj\stm32f10x_usart.o
 .debug_aranges
                0x00000b30       0x78 ..\obj\Lib.o
 .debug_aranges
                0x00000ba8       0x70 ..\obj\stm32f10x_dma.o
 .debug_aranges
                0x00000c18       0x40 ..\obj\misc.o
 .debug_aranges
                0x00000c58       0xe8 ..\obj\Eeprom.o
 .debug_aranges
                0x00000d40       0x58 ..\obj\usart.o

.debug_ranges   0x00000000      0xd38
 .debug_ranges  0x00000000       0x28 ..\obj\MicroMenu2_1.o
 .debug_ranges  0x00000028      0x330 ..\obj\stm32f10x_tim.o
 .debug_ranges  0x00000358       0x18 ..\obj\startup_stm32f10x_ld_vl.o
 .debug_ranges  0x00000370       0x50 ..\obj\General.o
 .debug_ranges  0x000003c0       0x18 ..\obj\system_stm32f10x.o
 .debug_ranges  0x000003d8       0xa8 ..\obj\hd44780_driver.o
 .debug_ranges  0x00000480       0x98 ..\obj\stm32f10x_gpio.o
 .debug_ranges  0x00000518      0x250 ..\obj\main.o
 .debug_ranges  0x00000768       0x58 ..\obj\ADC.o
 .debug_ranges  0x000007c0      0x110 ..\obj\stm32f10x_rcc.o
 .debug_ranges  0x000008d0       0x38 ..\obj\Init_.o
 .debug_ranges  0x00000908      0x128 ..\obj\stm32f10x_adc.o
 .debug_ranges  0x00000a30       0xf0 ..\obj\stm32f10x_usart.o
 .debug_ranges  0x00000b20       0x68 ..\obj\Lib.o
 .debug_ranges  0x00000b88       0x60 ..\obj\stm32f10x_dma.o
 .debug_ranges  0x00000be8       0x30 ..\obj\misc.o
 .debug_ranges  0x00000c18       0xd8 ..\obj\Eeprom.o
 .debug_ranges  0x00000cf0       0x48 ..\obj\usart.o

.debug_line     0x00000000     0x581c
 .debug_line    0x00000000      0x154 ..\obj\MicroMenu2_1.o
 .debug_line    0x00000154      0xb8b ..\obj\stm32f10x_tim.o
 .debug_line    0x00000cdf       0xce ..\obj\startup_stm32f10x_ld_vl.o
 .debug_line    0x00000dad      0x3a7 ..\obj\General.o
 .debug_line    0x00001154      0x267 ..\obj\system_stm32f10x.o
 .debug_line    0x000013bb      0x50b ..\obj\hd44780_driver.o
 .debug_line    0x000018c6      0x436 ..\obj\stm32f10x_gpio.o
 .debug_line    0x00001cfc      0xc50 ..\obj\main.o
 .debug_line    0x0000294c      0x5c5 ..\obj\ADC.o
 .debug_line    0x00002f11      0x52d ..\obj\stm32f10x_rcc.o
 .debug_line    0x0000343e      0x3ab ..\obj\Init_.o
 .debug_line    0x000037e9      0x5ad ..\obj\stm32f10x_adc.o
 .debug_line    0x00003d96      0x554 ..\obj\stm32f10x_usart.o
 .debug_line    0x000042ea      0x518 ..\obj\Lib.o
 .debug_line    0x00004802      0x37b ..\obj\stm32f10x_dma.o
 .debug_line    0x00004b7d      0x2c6 ..\obj\misc.o
 .debug_line    0x00004e43      0x64f ..\obj\Eeprom.o
 .debug_line    0x00005492      0x38a ..\obj\usart.o

.debug_str      0x00000000     0x45f8
 .debug_str     0x00000000      0x1a8 ..\obj\MicroMenu2_1.o
                                0x1cd (size before relaxing)
 .debug_str     0x000001a8      0xcad ..\obj\stm32f10x_tim.o
                                0xdae (size before relaxing)
 .debug_str     0x00000e55       0xe2 ..\obj\startup_stm32f10x_ld_vl.o
                                0x14a (size before relaxing)
 .debug_str     0x00000f37      0x6a6 ..\obj\General.o
                                0x7e5 (size before relaxing)
 .debug_str     0x000015dd      0x191 ..\obj\system_stm32f10x.o
                                0x2ab (size before relaxing)
 .debug_str     0x0000176e      0x254 ..\obj\hd44780_driver.o
                                0x368 (size before relaxing)
 .debug_str     0x000019c2      0x396 ..\obj\stm32f10x_gpio.o
                                0x4ea (size before relaxing)
 .debug_str     0x00001d58      0xab9 ..\obj\main.o
                               0x1426 (size before relaxing)
 .debug_str     0x00002811      0x6d6 ..\obj\ADC.o
                               0x1188 (size before relaxing)
 .debug_str     0x00002ee7      0x44c ..\obj\stm32f10x_rcc.o
                                0x63e (size before relaxing)
 .debug_str     0x00003333       0xbb ..\obj\Init_.o
                                0x787 (size before relaxing)
 .debug_str     0x000033ee      0x49b ..\obj\stm32f10x_adc.o
                                0x6cc (size before relaxing)
 .debug_str     0x00003889      0x457 ..\obj\stm32f10x_usart.o
                                0x661 (size before relaxing)
 .debug_str     0x00003ce0      0x10b ..\obj\Lib.o
                                0x230 (size before relaxing)
 .debug_str     0x00003deb      0x16e ..\obj\stm32f10x_dma.o
                                0x392 (size before relaxing)
 .debug_str     0x00003f59      0x1c1 ..\obj\misc.o
                                0x39a (size before relaxing)
 .debug_str     0x0000411a      0x3b4 ..\obj\Eeprom.o
                                0xb22 (size before relaxing)
 .debug_str     0x000044ce      0x12a ..\obj\usart.o
                                0x783 (size before relaxing)

.comment        0x00000000       0x70
 .comment       0x00000000       0x70 ..\obj\MicroMenu2_1.o
                                 0x71 (size before relaxing)
 .comment       0x00000000       0x71 ..\obj\stm32f10x_tim.o
 .comment       0x00000000       0x71 ..\obj\startup_stm32f10x_ld_vl.o
 .comment       0x00000000       0x71 ..\obj\General.o
 .comment       0x00000000       0x71 ..\obj\system_stm32f10x.o
 .comment       0x00000000       0x71 ..\obj\hd44780_driver.o
 .comment       0x00000000       0x71 ..\obj\stm32f10x_gpio.o
 .comment       0x00000000       0x71 ..\obj\main.o
 .comment       0x00000000       0x71 ..\obj\ADC.o
 .comment       0x00000000       0x71 ..\obj\stm32f10x_rcc.o
 .comment       0x00000000       0x71 ..\obj\Init_.o
 .comment       0x00000000       0x71 ..\obj\stm32f10x_adc.o
 .comment       0x00000000       0x71 ..\obj\stm32f10x_usart.o
 .comment       0x00000000       0x71 ..\obj\Lib.o
 .comment       0x00000000       0x71 ..\obj\stm32f10x_dma.o
 .comment       0x00000000       0x71 ..\obj\misc.o
 .comment       0x00000000       0x71 ..\obj\Eeprom.o
 .comment       0x00000000       0x71 ..\obj\usart.o

.ARM.attributes
                0x00000000       0x33
 .ARM.attributes
                0x00000000       0x33 ..\obj\MicroMenu2_1.o
 .ARM.attributes
                0x00000033       0x33 ..\obj\stm32f10x_tim.o
 .ARM.attributes
                0x00000066       0x33 ..\obj\startup_stm32f10x_ld_vl.o
 .ARM.attributes
                0x00000099       0x33 ..\obj\General.o
 .ARM.attributes
                0x000000cc       0x33 ..\obj\system_stm32f10x.o
 .ARM.attributes
                0x000000ff       0x33 ..\obj\hd44780_driver.o
 .ARM.attributes
                0x00000132       0x33 ..\obj\stm32f10x_gpio.o
 .ARM.attributes
                0x00000165       0x33 ..\obj\main.o
 .ARM.attributes
                0x00000198       0x33 ..\obj\ADC.o
 .ARM.attributes
                0x000001cb       0x33 ..\obj\stm32f10x_rcc.o
 .ARM.attributes
                0x000001fe       0x33 ..\obj\Init_.o
 .ARM.attributes
                0x00000231       0x33 ..\obj\stm32f10x_adc.o
 .ARM.attributes
                0x00000264       0x33 ..\obj\stm32f10x_usart.o
 .ARM.attributes
                0x00000297       0x33 ..\obj\Lib.o
 .ARM.attributes
                0x000002ca       0x33 ..\obj\stm32f10x_dma.o
 .ARM.attributes
                0x000002fd       0x33 ..\obj\misc.o
 .ARM.attributes
                0x00000330       0x33 ..\obj\Eeprom.o
 .ARM.attributes
                0x00000363       0x33 ..\obj\usart.o
 .ARM.attributes
                0x00000396       0x2d c:/program files (x86)/gnu tools arm embedded/4.6 2012q4/bin/../lib/gcc/arm-none-eabi/4.6.2/../../../../arm-none-eabi/lib/armv7-m\libg.a(lib_a-memcpy.o)

.debug_frame    0x00000000     0x1f40
 .debug_frame   0x00000000       0x60 ..\obj\MicroMenu2_1.o
 .debug_frame   0x00000060      0x65c ..\obj\stm32f10x_tim.o
 .debug_frame   0x000006bc       0x38 ..\obj\startup_stm32f10x_ld_vl.o
 .debug_frame   0x000006f4       0x70 ..\obj\General.o
 .debug_frame   0x00000764       0x34 ..\obj\system_stm32f10x.o
 .debug_frame   0x00000798      0x1ec ..\obj\hd44780_driver.o
 .debug_frame   0x00000984      0x174 ..\obj\stm32f10x_gpio.o
 .debug_frame   0x00000af8      0x5c4 ..\obj\main.o
 .debug_frame   0x000010bc      0x10c ..\obj\ADC.o
 .debug_frame   0x000011c8      0x234 ..\obj\stm32f10x_rcc.o
 .debug_frame   0x000013fc       0xac ..\obj\Init_.o
 .debug_frame   0x000014a8      0x280 ..\obj\stm32f10x_adc.o
 .debug_frame   0x00001728      0x20c ..\obj\stm32f10x_usart.o
 .debug_frame   0x00001934      0x158 ..\obj\Lib.o
 .debug_frame   0x00001a8c       0xc8 ..\obj\stm32f10x_dma.o
 .debug_frame   0x00001b54       0x68 ..\obj\misc.o
 .debug_frame   0x00001bbc      0x290 ..\obj\Eeprom.o
 .debug_frame   0x00001e4c       0xc8 ..\obj\usart.o
 .debug_frame   0x00001f14       0x2c c:/program files (x86)/gnu tools arm embedded/4.6 2012q4/bin/../lib/gcc/arm-none-eabi/4.6.2/../../../../arm-none-eabi/lib/armv7-m\libg.a(lib_a-memcpy.o)
